target datalayout = "e-m:e-p270:32:32-p271:32:32-p272:64:64-i64:64-i128:128-f80:128-n8:16:32:64-S128"
target triple = "x86_64-pc-linux-gnu"

%struct.Abc_Ntk_t_ = type { i32, i32, ptr, ptr, ptr, ptr, ptr, ptr, ptr, ptr, ptr, ptr, ptr, [11 x i32], i32, i32, i32, i32, ptr, i32, ptr, ptr, i32, i32, i32, double, i32, %struct.Vec_Int_t_, ptr, ptr, ptr, ptr, ptr, float, i32, ptr, ptr, ptr, ptr, ptr, ptr, ptr, ptr, ptr, ptr, ptr, ptr, ptr, ptr, ptr, ptr, ptr, ptr, ptr, ptr, ptr, ptr }
%struct.Vec_Int_t_ = type { i32, i32, ptr }
%struct.Vec_Ptr_t_ = type { i32, i32, ptr }
%struct.Abc_Obj_t_ = type { ptr, ptr, i32, i32, %struct.Vec_Int_t_, %struct.Vec_Int_t_, %union.anon, %union.anon.0 }
%union.anon = type { ptr }
%union.anon.0 = type { ptr }
%struct.Buf_Man_t_ = type { i32, i32, i32, ptr, ptr, ptr, ptr, ptr, ptr, ptr, i32, i32, i32, float, ptr, ptr, ptr, ptr, ptr, i32, i32, i32, i32, i32 }

; Function Attrs: inlinehint nounwind uwtable
define internal void @Vec_IntWriteEntry(ptr noundef %0, i32 noundef %1, i32 noundef %2) #2 {
  %4 = alloca ptr, align 8
  %5 = alloca i32, align 4
  %6 = alloca i32, align 4
  store ptr %0, ptr %4, align 8, !tbaa !43
  store i32 %1, ptr %5, align 4, !tbaa !8
  store i32 %2, ptr %6, align 4, !tbaa !8
  %7 = load i32, ptr %6, align 4, !tbaa !8
  %8 = load ptr, ptr %4, align 8, !tbaa !43
  %9 = getelementptr inbounds nuw %struct.Vec_Int_t_, ptr %8, i32 0, i32 2
  %10 = load ptr, ptr %9, align 8, !tbaa !48
  %11 = load i32, ptr %5, align 4, !tbaa !8
  %12 = sext i32 %11 to i64
  %13 = getelementptr inbounds i32, ptr %10, i64 %12
  store i32 %7, ptr %13, align 4, !tbaa !8
  ret void
}

; Function Attrs: inlinehint nounwind uwtable
define internal void @Abc_BufSetNodeArr(ptr noundef %0, ptr noundef %1, i32 noundef %2) #2 {
  %4 = alloca ptr, align 8
  %5 = alloca ptr, align 8
  %6 = alloca i32, align 4
  store ptr %0, ptr %4, align 8, !tbaa !81
  store ptr %1, ptr %5, align 8, !tbaa !26
  store i32 %2, ptr %6, align 4, !tbaa !8
  %7 = load ptr, ptr %4, align 8, !tbaa !81
  %8 = getelementptr inbounds nuw %struct.Buf_Man_t_, ptr %7, i32 0, i32 6
  %9 = load ptr, ptr %8, align 8, !tbaa !89
  %10 = load ptr, ptr %5, align 8, !tbaa !26
  %11 = call i32 @Abc_ObjId(ptr noundef %10)
  %12 = load i32, ptr %6, align 4, !tbaa !8
  call void @Vec_IntWriteEntry(ptr noundef %9, i32 noundef %11, i32 noundef %12)
  ret void
}

; Function Attrs: inlinehint nounwind uwtable
define internal i32 @Abc_BufEdgeDelay(ptr noundef %0, ptr noundef %1, i32 noundef %2) #2 {
  %4 = alloca ptr, align 8
  %5 = alloca ptr, align 8
  %6 = alloca i32, align 4
  store ptr %0, ptr %4, align 8, !tbaa !81
  store ptr %1, ptr %5, align 8, !tbaa !26
  store i32 %2, ptr %6, align 4, !tbaa !8
  %7 = load ptr, ptr %4, align 8, !tbaa !81
  %8 = getelementptr inbounds nuw %struct.Buf_Man_t_, ptr %7, i32 0, i32 5
  %9 = load ptr, ptr %8, align 8, !tbaa !90
  %10 = load ptr, ptr %4, align 8, !tbaa !81
  %11 = getelementptr inbounds nuw %struct.Buf_Man_t_, ptr %10, i32 0, i32 4
  %12 = load ptr, ptr %11, align 8, !tbaa !84
  %13 = load ptr, ptr %5, align 8, !tbaa !26
  %14 = call i32 @Abc_ObjId(ptr noundef %13)
  %15 = call i32 @Vec_IntEntry(ptr noundef %12, i32 noundef %14)
  %16 = load i32, ptr %6, align 4, !tbaa !8
  %17 = add nsw i32 %15, %16
  %18 = call i32 @Vec_IntEntry(ptr noundef %9, i32 noundef %17)
  ret i32 %18
}

; Function Attrs: inlinehint nounwind uwtable
define internal i32 @Abc_BufNodeArr(ptr noundef %0, ptr noundef %1) #2 {
  %3 = alloca ptr, align 8
  %4 = alloca ptr, align 8
  store ptr %0, ptr %3, align 8, !tbaa !81
  store ptr %1, ptr %4, align 8, !tbaa !26
  %5 = load ptr, ptr %3, align 8, !tbaa !81
  %6 = getelementptr inbounds nuw %struct.Buf_Man_t_, ptr %5, i32 0, i32 6
  %7 = load ptr, ptr %6, align 8, !tbaa !89
  %8 = load ptr, ptr %4, align 8, !tbaa !26
  %9 = call i32 @Abc_ObjId(ptr noundef %8)
  %10 = call i32 @Vec_IntEntry(ptr noundef %7, i32 noundef %9)
  ret i32 %10
}

; Function Attrs: inlinehint nounwind uwtable
define internal i32 @Vec_IntEntry(ptr noundef %0, i32 noundef %1) #2 {
  %3 = alloca ptr, align 8
  %4 = alloca i32, align 4
  store ptr %0, ptr %3, align 8, !tbaa !43
  store i32 %1, ptr %4, align 4, !tbaa !8
  %5 = load ptr, ptr %3, align 8, !tbaa !43
  %6 = getelementptr inbounds nuw %struct.Vec_Int_t_, ptr %5, i32 0, i32 2
  %7 = load ptr, ptr %6, align 8, !tbaa !48
  %8 = load i32, ptr %4, align 4, !tbaa !8
  %9 = sext i32 %8 to i64
  %10 = getelementptr inbounds i32, ptr %7, i64 %9
  %11 = load i32, ptr %10, align 4, !tbaa !8
  ret i32 %11
}

; Function Attrs: inlinehint nounwind uwtable
define internal i32 @Abc_ObjId(ptr noundef %0) #2 {
  %2 = alloca ptr, align 8
  store ptr %0, ptr %2, align 8, !tbaa !26
  %3 = load ptr, ptr %2, align 8, !tbaa !26
  %4 = getelementptr inbounds nuw %struct.Abc_Obj_t_, ptr %3, i32 0, i32 2
  %5 = load i32, ptr %4, align 8, !tbaa !41
  ret i32 %5
}

; Function Attrs: inlinehint nounwind uwtable
define internal ptr @Abc_ObjFanin(ptr noundef %0, i32 noundef %1) #2 {
  %3 = alloca ptr, align 8
  %4 = alloca i32, align 4
  store ptr %0, ptr %3, align 8, !tbaa !26
  store i32 %1, ptr %4, align 4, !tbaa !8
  %5 = load ptr, ptr %3, align 8, !tbaa !26
  %6 = getelementptr inbounds nuw %struct.Abc_Obj_t_, ptr %5, i32 0, i32 0
  %7 = load ptr, ptr %6, align 8, !tbaa !37
  %8 = getelementptr inbounds nuw %struct.Abc_Ntk_t_, ptr %7, i32 0, i32 5
  %9 = load ptr, ptr %8, align 8, !tbaa !10
  %10 = getelementptr inbounds nuw %struct.Vec_Ptr_t_, ptr %9, i32 0, i32 2
  %11 = load ptr, ptr %10, align 8, !tbaa !38
  %12 = load ptr, ptr %3, align 8, !tbaa !26
  %13 = getelementptr inbounds nuw %struct.Abc_Obj_t_, ptr %12, i32 0, i32 4
  %14 = getelementptr inbounds nuw %struct.Vec_Int_t_, ptr %13, i32 0, i32 2
  %15 = load ptr, ptr %14, align 8, !tbaa !39
  %16 = load i32, ptr %4, align 4, !tbaa !8
  %17 = sext i32 %16 to i64
  %18 = getelementptr inbounds i32, ptr %15, i64 %17
  %19 = load i32, ptr %18, align 4, !tbaa !8
  %20 = sext i32 %19 to i64
  %21 = getelementptr inbounds ptr, ptr %11, i64 %20
  %22 = load ptr, ptr %21, align 8, !tbaa !40
  ret ptr %22
}

; Function Attrs: inlinehint nounwind uwtable
define internal i32 @Abc_ObjFaninNum(ptr noundef %0) #2 {
  %2 = alloca ptr, align 8
  store ptr %0, ptr %2, align 8, !tbaa !26
  %3 = load ptr, ptr %2, align 8, !tbaa !26
  %4 = getelementptr inbounds nuw %struct.Abc_Obj_t_, ptr %3, i32 0, i32 4
  %5 = getelementptr inbounds nuw %struct.Vec_Int_t_, ptr %4, i32 0, i32 1
  %6 = load i32, ptr %5, align 4, !tbaa !35
  ret i32 %6
}

; Function Attrs: nounwind uwtable
define float @Abc_BufComputeArr(ptr noundef %0, ptr noundef %1) #0 {
  %3 = alloca ptr, align 8
  %4 = alloca ptr, align 8
  %5 = alloca ptr, align 8
  %6 = alloca i32, align 4
  %7 = alloca float, align 4
  %8 = alloca float, align 4
  store ptr %0, ptr %3, align 8, !tbaa !81
  store ptr %1, ptr %4, align 8, !tbaa !26
  call void @llvm.lifetime.start.p0(i64 8, ptr %5) #9
  call void @llvm.lifetime.start.p0(i64 4, ptr %6) #9
  call void @llvm.lifetime.start.p0(i64 4, ptr %7) #9
  call void @llvm.lifetime.start.p0(i64 4, ptr %8) #9
  store float -1.000000e+09, ptr %8, align 4, !tbaa !83
  store i32 0, ptr %6, align 4, !tbaa !8
  br label %9

9:                                                ; preds = %45, %2
  %10 = load i32, ptr %6, align 4, !tbaa !8
  %11 = load ptr, ptr %4, align 8, !tbaa !26
  %12 = call i32 @Abc_ObjFaninNum(ptr noundef %11)
  %13 = icmp slt i32 %10, %12
  br i1 %13, label %14, label %18

14:                                               ; preds = %9
  %15 = load ptr, ptr %4, align 8, !tbaa !26
  %16 = load i32, ptr %6, align 4, !tbaa !8
  %17 = call ptr @Abc_ObjFanin(ptr noundef %15, i32 noundef %16)
  store ptr %17, ptr %5, align 8, !tbaa !26
  br label %18

18:                                               ; preds = %14, %9
  %19 = phi i1 [ false, %9 ], [ true, %14 ]
  br i1 %19, label %20, label %48

20:                                               ; preds = %18
  %21 = load ptr, ptr %3, align 8, !tbaa !81
  %22 = getelementptr inbounds nuw %struct.Buf_Man_t_, ptr %21, i32 0, i32 4
  %23 = load ptr, ptr %22, align 8, !tbaa !84
  %24 = load ptr, ptr %4, align 8, !tbaa !26
  %25 = call i32 @Abc_ObjId(ptr noundef %24)
  %26 = call i32 @Vec_IntEntry(ptr noundef %23, i32 noundef %25)
  %27 = icmp eq i32 %26, -1000000000
  br i1 %27, label %28, label %29

28:                                               ; preds = %20
  br label %45

29:                                               ; preds = %20
  %30 = load ptr, ptr %3, align 8, !tbaa !81
  %31 = load ptr, ptr %5, align 8, !tbaa !26
  %32 = call i32 @Abc_BufNodeArr(ptr noundef %30, ptr noundef %31)
  %33 = load ptr, ptr %3, align 8, !tbaa !81
  %34 = load ptr, ptr %4, align 8, !tbaa !26
  %35 = load i32, ptr %6, align 4, !tbaa !8
  %36 = call i32 @Abc_BufEdgeDelay(ptr noundef %33, ptr noundef %34, i32 noundef %35)
  %37 = add nsw i32 %32, %36
  %38 = sitofp i32 %37 to float
  store float %38, ptr %7, align 4, !tbaa !83
  %39 = load float, ptr %8, align 4, !tbaa !83
  %40 = load float, ptr %7, align 4, !tbaa !83
  %41 = fcmp olt float %39, %40
  br i1 %41, label %42, label %44

42:                                               ; preds = %29
  %43 = load float, ptr %7, align 4, !tbaa !83
  store float %43, ptr %8, align 4, !tbaa !83
  br label %44

44:                                               ; preds = %42, %29
  br label %45

45:                                               ; preds = %44, %28
  %46 = load i32, ptr %6, align 4, !tbaa !8
  %47 = add nsw i32 %46, 1
  store i32 %47, ptr %6, align 4, !tbaa !8
  br label %9, !llvm.loop !88

48:                                               ; preds = %18
  %49 = load ptr, ptr %3, align 8, !tbaa !81
  %50 = load ptr, ptr %4, align 8, !tbaa !26
  %51 = load float, ptr %8, align 4, !tbaa !83
  %52 = fptosi float %51 to i32
  call void @Abc_BufSetNodeArr(ptr noundef %49, ptr noundef %50, i32 noundef %52)
  %53 = load float, ptr %8, align 4, !tbaa !83
  call void @llvm.lifetime.end.p0(i64 4, ptr %8) #9
  call void @llvm.lifetime.end.p0(i64 4, ptr %7) #9
  call void @llvm.lifetime.end.p0(i64 4, ptr %6) #9
  call void @llvm.lifetime.end.p0(i64 8, ptr %5) #9
  ret float %53
}