; Function Attrs: nofree norecurse nosync nounwind memory(readwrite, inaccessiblemem: none) uwtable
define float @Abc_BufComputeArr(ptr noundef readonly captures(none) %0, ptr noundef readonly captures(none) %1) local_unnamed_addr #7 {
  %3 = getelementptr i8, ptr %1, i64 28
  %.val = load i32, ptr %3, align 4, !tbaa !28
  %4 = icmp sgt i32 %.val, 0
  br i1 %4, label %.lr.ph, label %..critedge_crit_edge

..critedge_crit_edge:                             ; preds = %2
  %.phi.trans.insert = getelementptr i8, ptr %1, i64 16
  %.val30.pre = load i32, ptr %.phi.trans.insert, align 8, !tbaa !34
  %.pre = sext i32 %.val30.pre to i64
  br label %.critedge

.lr.ph:                                           ; preds = %2
  %5 = getelementptr inbounds nuw i8, ptr %0, i64 24
  %6 = load ptr, ptr %5, align 8, !tbaa !77
  %7 = getelementptr i8, ptr %1, i64 16
  %.val22 = load i32, ptr %7, align 8, !tbaa !34
  %8 = getelementptr i8, ptr %6, i64 8
  %.val23 = load ptr, ptr %8, align 8, !tbaa !45
  %9 = sext i32 %.val22 to i64
  %10 = getelementptr inbounds i32, ptr %.val23, i64 %9
  %11 = load i32, ptr %10, align 4, !tbaa !33
  %12 = icmp eq i32 %11, -1000000000
  br i1 %12, label %.critedge, label %.lr.ph.split

.lr.ph.split:                                     ; preds = %.lr.ph
  %13 = getelementptr i8, ptr %0, i64 32
  %14 = getelementptr i8, ptr %0, i64 40
  %15 = getelementptr i8, ptr %1, i64 32
  %.val20 = load ptr, ptr %1, align 8, !tbaa !31
  %16 = getelementptr i8, ptr %.val20, i64 32
  %.val20.val = load ptr, ptr %16, align 8, !tbaa !3
  %17 = getelementptr i8, ptr %.val20.val, i64 8
  %.val20.val.val = load ptr, ptr %17, align 8, !tbaa !26
  %.val21 = load ptr, ptr %15, align 8, !tbaa !32
  %.val24 = load ptr, ptr %14, align 8, !tbaa !81
  %18 = getelementptr i8, ptr %.val24, i64 8
  %.val24.val = load ptr, ptr %18, align 8, !tbaa !45
  %.val27 = load ptr, ptr %13, align 8, !tbaa !82
  %19 = getelementptr i8, ptr %.val27, i64 8
  %.val27.val = load ptr, ptr %19, align 8, !tbaa !45
  %20 = sext i32 %11 to i64
  %wide.trip.count = zext nneg i32 %.val to i64
  %invariant.gep = getelementptr i32, ptr %.val27.val, i64 %20
  br label %21

21:                                               ; preds = %.lr.ph.split, %21
  %indvars.iv = phi i64 [ 0, %.lr.ph.split ], [ %indvars.iv.next, %21 ]
  %.032 = phi float [ -1.000000e+09, %.lr.ph.split ], [ %.1, %21 ]
  %22 = getelementptr inbounds nuw i32, ptr %.val21, i64 %indvars.iv
  %23 = load i32, ptr %22, align 4, !tbaa !33
  %24 = sext i32 %23 to i64
  %25 = getelementptr inbounds ptr, ptr %.val20.val.val, i64 %24
  %26 = load ptr, ptr %25, align 8, !tbaa !27
  %27 = getelementptr i8, ptr %26, i64 16
  %.val25 = load i32, ptr %27, align 8, !tbaa !34
  %28 = sext i32 %.val25 to i64
  %29 = getelementptr inbounds i32, ptr %.val24.val, i64 %28
  %30 = load i32, ptr %29, align 4, !tbaa !33
  %gep = getelementptr i32, ptr %invariant.gep, i64 %indvars.iv
  %31 = load i32, ptr %gep, align 4, !tbaa !33
  %32 = add nsw i32 %31, %30
  %33 = sitofp i32 %32 to float
  %34 = fcmp olt float %.032, %33
  %.1 = select i1 %34, float %33, float %.032
  %indvars.iv.next = add nuw nsw i64 %indvars.iv, 1
  %exitcond.not = icmp eq i64 %indvars.iv.next, %wide.trip.count
  br i1 %exitcond.not, label %.critedge, label %21, !llvm.loop !83

.critedge:                                        ; preds = %21, %.lr.ph, %..critedge_crit_edge
  %.pre-phi = phi i64 [ %.pre, %..critedge_crit_edge ], [ %9, %.lr.ph ], [ %9, %21 ]
  %.0.lcssa = phi float [ -1.000000e+09, %..critedge_crit_edge ], [ -1.000000e+09, %.lr.ph ], [ %.1, %21 ]
  %35 = fptosi float %.0.lcssa to i32
  %36 = getelementptr i8, ptr %0, i64 40
  %.val29 = load ptr, ptr %36, align 8, !tbaa !81
  %37 = getelementptr i8, ptr %.val29, i64 8
  %.val29.val = load ptr, ptr %37, align 8, !tbaa !45
  %38 = getelementptr inbounds i32, ptr %.val29.val, i64 %.pre-phi
  store i32 %35, ptr %38, align 4, !tbaa !33
  ret float %.0.lcssa
}